target datalayout = "e-m:e-p270:32:32-p271:32:32-p272:64:64-i64:64-i128:128-f80:128-n8:16:32:64-S128"
target triple = "x86_64-pc-linux-gnu"

@progname = internal global ptr null, align 8
@.str.105 = private unnamed_addr constant [78 x i8] c"program \22%s\22 is needed by %s but was not found in the same directory as \22%s\22\0A\00", align 1
@.str.106 = private unnamed_addr constant [67 x i8] c"program \22%s\22 was found by \22%s\22 but was not the same version as %s\0A\00", align 1

; Function Attrs: nounwind uwtable
define internal ptr @find_other_exec_or_die(ptr noundef %0, ptr noundef %1, ptr noundef %2) #0 {
  %4 = alloca ptr, align 8
  %5 = alloca ptr, align 8
  %6 = alloca ptr, align 8
  %7 = alloca i32, align 4
  %8 = alloca ptr, align 8
  %9 = alloca [1024 x i8], align 16
  store ptr %0, ptr %4, align 8
  store ptr %1, ptr %5, align 8
  store ptr %2, ptr %6, align 8
  call void @llvm.lifetime.start.p0(i64 4, ptr %7) #10
  call void @llvm.lifetime.start.p0(i64 8, ptr %8) #10
  %10 = call ptr @pg_malloc(i64 noundef 1024)
  store ptr %10, ptr %8, align 8
  %11 = load ptr, ptr %4, align 8
  %12 = load ptr, ptr %5, align 8
  %13 = load ptr, ptr %6, align 8
  %14 = load ptr, ptr %8, align 8
  %15 = call i32 @find_other_exec(ptr noundef %11, ptr noundef %12, ptr noundef %13, ptr noundef %14)
  store i32 %15, ptr %7, align 4
  %16 = icmp slt i32 %15, 0
  br i1 %16, label %17, label %38

17:                                               ; preds = %3
  call void @llvm.lifetime.start.p0(i64 1024, ptr %9) #10
  %18 = load ptr, ptr %4, align 8
  %19 = getelementptr inbounds [1024 x i8], ptr %9, i64 0, i64 0
  %20 = call i32 @find_my_exec(ptr noundef %18, ptr noundef %19)
  %21 = icmp slt i32 %20, 0
  br i1 %21, label %22, label %26

22:                                               ; preds = %17
  %23 = getelementptr inbounds [1024 x i8], ptr %9, i64 0, i64 0
  %24 = load ptr, ptr @progname, align 8
  %25 = call i64 @strlcpy(ptr noundef %23, ptr noundef %24, i64 noundef 1024)
  br label %26

26:                                               ; preds = %22, %17
  %27 = load i32, ptr %7, align 4
  %28 = icmp eq i32 %27, -1
  br i1 %28, label %29, label %33

29:                                               ; preds = %26
  %30 = load ptr, ptr %5, align 8
  %31 = load ptr, ptr @progname, align 8
  %32 = getelementptr inbounds [1024 x i8], ptr %9, i64 0, i64 0
  call void (ptr, ...) @write_stderr(ptr noundef @.str.105, ptr noundef %30, ptr noundef %31, ptr noundef %32)
  br label %37

33:                                               ; preds = %26
  %34 = load ptr, ptr %5, align 8
  %35 = getelementptr inbounds [1024 x i8], ptr %9, i64 0, i64 0
  %36 = load ptr, ptr @progname, align 8
  call void (ptr, ...) @write_stderr(ptr noundef @.str.106, ptr noundef %34, ptr noundef %35, ptr noundef %36)
  br label %37

37:                                               ; preds = %33, %29
  call void @exit(i32 noundef 1) #12
  unreachable

38:                                               ; preds = %3
  %39 = load ptr, ptr %8, align 8
  call void @llvm.lifetime.end.p0(i64 8, ptr %8) #10
  call void @llvm.lifetime.end.p0(i64 4, ptr %7) #10
  ret ptr %39
}