; Function Attrs: nounwind uwtable
define internal fastcc noundef ptr @find_other_exec_or_die(ptr noundef %0, ptr noundef %1, ptr noundef %2) unnamed_addr #5 {
  %4 = alloca [1024 x i8], align 16
  %5 = tail call ptr @pg_malloc(i64 noundef 1024) #17
  %6 = tail call i32 @find_other_exec(ptr noundef %0, ptr noundef %1, ptr noundef %2, ptr noundef %5) #17
  %7 = icmp slt i32 %6, 0
  br i1 %7, label %8, label %17

8:                                                ; preds = %3
  call void @llvm.lifetime.start.p0(i64 1024, ptr nonnull %4) #17
  %9 = call i32 @find_my_exec(ptr noundef %0, ptr noundef nonnull %4) #17
  %10 = icmp slt i32 %9, 0
  br i1 %10, label %11, label %14

11:                                               ; preds = %8
  %12 = load ptr, ptr @progname, align 8
  %13 = call i64 @strlcpy(ptr noundef nonnull dereferenceable(1) %4, ptr noundef nonnull dereferenceable(1) %12, i64 noundef 1024) #17
  br label %14

14:                                               ; preds = %11, %8
  %15 = icmp eq i32 %6, -1
  %16 = load ptr, ptr @progname, align 8
  %. = select i1 %15, ptr %4, ptr %16
  %.9 = select i1 %15, ptr %16, ptr %4
  %.str.105..str.106 = select i1 %15, ptr @.str.105, ptr @.str.106
  call void (ptr, ...) @write_stderr(ptr noundef nonnull %.str.105..str.106, ptr noundef %1, ptr noundef %.9, ptr noundef %.)
  call void @exit(i32 noundef 1) #20
  unreachable

17:                                               ; preds = %3
  ret ptr %5
}